; Function Attrs: nofree norecurse nosync nounwind memory(write, argmem: readwrite, inaccessiblemem: none) uwtable
define internal fastcc noundef nonnull ptr @sip24_update(ptr noundef nonnull returned %0, ptr noundef readonly %1, i64 noundef %2) unnamed_addr #16 {
  %4 = getelementptr i8, ptr %1, i64 %2
  %5 = getelementptr inbounds nuw i8, ptr %0, i64 40
  %6 = getelementptr inbounds nuw i8, ptr %0, i64 32
  %7 = getelementptr i8, ptr %0, i64 36
  %8 = getelementptr i8, ptr %0, i64 37
  %9 = getelementptr i8, ptr %0, i64 38
  %10 = getelementptr i8, ptr %0, i64 39
  %11 = getelementptr inbounds nuw i8, ptr %0, i64 24
  %12 = getelementptr inbounds nuw i8, ptr %0, i64 8
  %13 = getelementptr inbounds nuw i8, ptr %0, i64 16
  %14 = getelementptr inbounds nuw i8, ptr %0, i64 48
  br label %15

15:                                               ; preds = %sip_round.exit, %3
  %.0 = phi ptr [ %1, %3 ], [ %.1.lcssa, %sip_round.exit ]
  %16 = icmp ult ptr %.0, %4
  br i1 %16, label %.lr.ph, label %.critedge

.lr.ph:                                           ; preds = %15, %18
  %.134 = phi ptr [ %19, %18 ], [ %.0, %15 ]
  %17 = load ptr, ptr %5, align 8, !tbaa !312
  %.not.not = icmp uge ptr %17, %5
  br i1 %.not.not, label %.critedge, label %18

18:                                               ; preds = %.lr.ph
  %19 = getelementptr i8, ptr %.134, i64 1
  %20 = load i8, ptr %.134, align 1, !tbaa !3
  %21 = getelementptr i8, ptr %17, i64 1
  store ptr %21, ptr %5, align 8, !tbaa !312
  store i8 %20, ptr %17, align 1, !tbaa !3
  %22 = icmp ult ptr %19, %4
  br i1 %22, label %.lr.ph, label %.critedge, !llvm.loop !315

.critedge:                                        ; preds = %.lr.ph, %18, %15
  %.1.lcssa = phi ptr [ %.0, %15 ], [ %19, %18 ], [ %.134, %.lr.ph ]
  %.lcssa = phi i1 [ false, %15 ], [ %.not.not, %18 ], [ %.not.not, %.lr.ph ]
  %23 = load ptr, ptr %5, align 8, !tbaa !312
  %24 = icmp ult ptr %23, %5
  br i1 %24, label %69, label %25

25:                                               ; preds = %.critedge
  %26 = load i32, ptr %6, align 8
  %27 = zext i32 %26 to i64
  %28 = load i8, ptr %7, align 4, !tbaa !3
  %29 = zext i8 %28 to i64
  %30 = shl nuw nsw i64 %29, 32
  %31 = or disjoint i64 %30, %27
  %32 = load i8, ptr %8, align 1, !tbaa !3
  %33 = zext i8 %32 to i64
  %34 = shl nuw nsw i64 %33, 40
  %35 = or disjoint i64 %31, %34
  %36 = load i8, ptr %9, align 2, !tbaa !3
  %37 = zext i8 %36 to i64
  %38 = shl nuw nsw i64 %37, 48
  %39 = or disjoint i64 %35, %38
  %40 = load i8, ptr %10, align 1, !tbaa !3
  %41 = zext i8 %40 to i64
  %42 = shl nuw i64 %41, 56
  %43 = or disjoint i64 %39, %42
  %44 = load i64, ptr %11, align 8, !tbaa !311
  %45 = xor i64 %43, %44
  %.promoted.i = load i64, ptr %12, align 8, !tbaa !309
  %.promoted36.i = load i64, ptr %0, align 8, !tbaa !307
  %.promoted40.i = load i64, ptr %13, align 8, !tbaa !310
  br label %46

46:                                               ; preds = %46, %25
  %.042.i = phi i32 [ 0, %25 ], [ %65, %46 ]
  %47 = phi i64 [ %.promoted.i, %25 ], [ %63, %46 ]
  %48 = phi i64 [ %.promoted36.i, %25 ], [ %58, %46 ]
  %49 = phi i64 [ %45, %25 ], [ %60, %46 ]
  %50 = phi i64 [ %.promoted40.i, %25 ], [ %64, %46 ]
  %51 = add i64 %48, %47
  %52 = tail call i64 @llvm.fshl.i64(i64 %47, i64 %47, i64 13)
  %53 = xor i64 %51, %52
  %54 = tail call i64 @llvm.fshl.i64(i64 %51, i64 %51, i64 32)
  %55 = add i64 %50, %49
  %56 = tail call i64 @llvm.fshl.i64(i64 %49, i64 %49, i64 16)
  %57 = xor i64 %55, %56
  %58 = add i64 %57, %54
  %59 = tail call i64 @llvm.fshl.i64(i64 %57, i64 %57, i64 21)
  %60 = xor i64 %59, %58
  %61 = add i64 %55, %53
  %62 = tail call i64 @llvm.fshl.i64(i64 %53, i64 %53, i64 17)
  %63 = xor i64 %61, %62
  %64 = tail call i64 @llvm.fshl.i64(i64 %61, i64 %61, i64 32)
  %65 = add nuw nsw i32 %.042.i, 1
  %exitcond.not.i = icmp eq i32 %65, 2
  br i1 %exitcond.not.i, label %sip_round.exit, label %46, !llvm.loop !316

sip_round.exit:                                   ; preds = %46
  store i64 %63, ptr %12, align 8, !tbaa !309
  store i64 %60, ptr %11, align 8, !tbaa !311
  store i64 %64, ptr %13, align 8, !tbaa !310
  %66 = xor i64 %58, %43
  store i64 %66, ptr %0, align 8, !tbaa !307
  store ptr %6, ptr %5, align 8, !tbaa !312
  %67 = load i64, ptr %14, align 8, !tbaa !313
  %68 = add i64 %67, 8
  store i64 %68, ptr %14, align 8, !tbaa !313
  br i1 %.lcssa, label %15, label %69, !llvm.loop !317

69:                                               ; preds = %.critedge, %sip_round.exit
  ret ptr %0
}